target datalayout = "e-m:e-p270:32:32-p271:32:32-p272:64:64-i64:64-i128:128-f80:128-n8:16:32:64-S128"
target triple = "x86_64-pc-linux-gnu"

%"struct.std::array.2" = type { [4 x i64] }
%"class.arrow::GenericBasicDecimal.1" = type { %"struct.std::array.2" }
%"struct.arrow::bit_util::little_endian::detail::Reader" = type { ptr }

; Function Attrs: mustprogress nounwind uwtable
define linkonce_odr noundef nonnull align 8 dereferenceable(8) ptr @_ZNSt14__array_traitsImLm4EE6_S_refERA4_Kmm(ptr noundef nonnull align 8 dereferenceable(32) %0, i64 noundef %1) #0 comdat align 2 {
  %3 = alloca ptr, align 8
  %4 = alloca i64, align 8
  store ptr %0, ptr %3, align 8, !tbaa !239
  store i64 %1, ptr %4, align 8, !tbaa !8
  %5 = load ptr, ptr %3, align 8, !tbaa !239
  %6 = load i64, ptr %4, align 8, !tbaa !8
  %7 = getelementptr inbounds nuw [4 x i64], ptr %5, i64 0, i64 %6
  ret ptr %7
}

; Function Attrs: mustprogress nounwind uwtable
define linkonce_odr noundef nonnull align 8 dereferenceable(8) ptr @_ZNKSt5arrayImLm4EEixEm(ptr noundef nonnull align 8 dereferenceable(32) %0, i64 noundef %1) #0 comdat align 2 {
  %3 = alloca ptr, align 8
  %4 = alloca i64, align 8
  store ptr %0, ptr %3, align 8, !tbaa !20
  store i64 %1, ptr %4, align 8, !tbaa !8
  %5 = load ptr, ptr %3, align 8
  %6 = getelementptr inbounds nuw %"struct.std::array.2", ptr %5, i32 0, i32 0
  %7 = load i64, ptr %4, align 8, !tbaa !8
  %8 = call noundef nonnull align 8 dereferenceable(8) ptr @_ZNSt14__array_traitsImLm4EE6_S_refERA4_Kmm(ptr noundef nonnull align 8 dereferenceable(32) %6, i64 noundef %7) #12
  ret ptr %8
}

; Function Attrs: mustprogress nounwind uwtable
define linkonce_odr void @_ZN5arrow8bit_util13little_endian6detail6ReaderImLm4EEC2ERKSt5arrayImLm4EE(ptr noundef nonnull align 8 dereferenceable(8) %0, ptr noundef nonnull align 8 dereferenceable(32) %1) unnamed_addr #0 comdat align 2 {
  %3 = alloca ptr, align 8
  %4 = alloca ptr, align 8
  store ptr %0, ptr %3, align 8, !tbaa !247
  store ptr %1, ptr %4, align 8, !tbaa !20
  %5 = load ptr, ptr %3, align 8
  %6 = getelementptr inbounds nuw %"struct.arrow::bit_util::little_endian::detail::Reader", ptr %5, i32 0, i32 0
  %7 = load ptr, ptr %4, align 8, !tbaa !20
  store ptr %7, ptr %6, align 8, !tbaa !20
  ret void
}

; Function Attrs: mustprogress nounwind uwtable
define linkonce_odr noundef nonnull align 8 dereferenceable(8) ptr @_ZNK5arrow8bit_util13little_endian6detail6ReaderImLm4EEixEm(ptr noundef nonnull align 8 dereferenceable(8) %0, i64 noundef %1) #0 comdat align 2 {
  %3 = alloca ptr, align 8
  %4 = alloca i64, align 8
  store ptr %0, ptr %3, align 8, !tbaa !247
  store i64 %1, ptr %4, align 8, !tbaa !8
  %5 = load ptr, ptr %3, align 8
  %6 = getelementptr inbounds nuw %"struct.arrow::bit_util::little_endian::detail::Reader", ptr %5, i32 0, i32 0
  %7 = load ptr, ptr %6, align 8, !tbaa !249
  %8 = load i64, ptr %4, align 8, !tbaa !8
  %9 = call noundef nonnull align 8 dereferenceable(8) ptr @_ZNKSt5arrayImLm4EEixEm(ptr noundef nonnull align 8 dereferenceable(32) %7, i64 noundef %8) #12
  ret ptr %9
}

; Function Attrs: inlinehint mustprogress uwtable
define internal ptr @_ZN5arrow8bit_util13little_endianL4MakeImLm4EEENS1_6detail6ReaderIT_XT0_EEERKSt5arrayIS5_XT0_EE(ptr noundef nonnull align 8 dereferenceable(32) %0) #8 {
  %2 = alloca %"struct.arrow::bit_util::little_endian::detail::Reader", align 8
  %3 = alloca ptr, align 8
  store ptr %0, ptr %3, align 8, !tbaa !20
  %4 = load ptr, ptr %3, align 8, !tbaa !20
  call void @_ZN5arrow8bit_util13little_endian6detail6ReaderImLm4EEC2ERKSt5arrayImLm4EE(ptr noundef nonnull align 8 dereferenceable(8) %2, ptr noundef nonnull align 8 dereferenceable(32) %4)
  %5 = getelementptr inbounds nuw %"struct.arrow::bit_util::little_endian::detail::Reader", ptr %2, i32 0, i32 0
  %6 = load ptr, ptr %5, align 8
  ret ptr %6
}

; Function Attrs: mustprogress nounwind uwtable
define weak_odr noundef nonnull align 8 dereferenceable(32) ptr @_ZNK5arrow19GenericBasicDecimalINS_15BasicDecimal256ELi256ELi4EE19native_endian_arrayEv(ptr noundef nonnull align 8 dereferenceable(32) %0) #0 comdat align 2 {
  %2 = alloca ptr, align 8
  store ptr %0, ptr %2, align 8, !tbaa !18
  %3 = load ptr, ptr %2, align 8
  %4 = getelementptr inbounds nuw %"class.arrow::GenericBasicDecimal.1", ptr %3, i32 0, i32 0
  ret ptr %4
}

; Function Attrs: mustprogress uwtable
define noundef zeroext i1 @_ZN5arrowltERKNS_15BasicDecimal256ES2_(ptr noundef nonnull align 8 dereferenceable(32) %0, ptr noundef nonnull align 8 dereferenceable(32) %1) #6 {
  %3 = alloca ptr, align 8
  %4 = alloca ptr, align 8
  %5 = alloca %"struct.arrow::bit_util::little_endian::detail::Reader", align 8
  %6 = alloca %"struct.arrow::bit_util::little_endian::detail::Reader", align 8
  store ptr %0, ptr %3, align 8, !tbaa !237
  store ptr %1, ptr %4, align 8, !tbaa !237
  call void @llvm.lifetime.start.p0(i64 8, ptr %5) #12
  %7 = load ptr, ptr %3, align 8, !tbaa !237
  %8 = call noundef nonnull align 8 dereferenceable(32) ptr @_ZNK5arrow19GenericBasicDecimalINS_15BasicDecimal256ELi256ELi4EE19native_endian_arrayEv(ptr noundef nonnull align 8 dereferenceable(32) %7)
  %9 = call ptr @_ZN5arrow8bit_util13little_endianL4MakeImLm4EEENS1_6detail6ReaderIT_XT0_EEERKSt5arrayIS5_XT0_EE(ptr noundef nonnull align 8 dereferenceable(32) %8)
  %10 = getelementptr inbounds nuw %"struct.arrow::bit_util::little_endian::detail::Reader", ptr %5, i32 0, i32 0
  store ptr %9, ptr %10, align 8
  call void @llvm.lifetime.start.p0(i64 8, ptr %6) #12
  %11 = load ptr, ptr %4, align 8, !tbaa !237
  %12 = call noundef nonnull align 8 dereferenceable(32) ptr @_ZNK5arrow19GenericBasicDecimalINS_15BasicDecimal256ELi256ELi4EE19native_endian_arrayEv(ptr noundef nonnull align 8 dereferenceable(32) %11)
  %13 = call ptr @_ZN5arrow8bit_util13little_endianL4MakeImLm4EEENS1_6detail6ReaderIT_XT0_EEERKSt5arrayIS5_XT0_EE(ptr noundef nonnull align 8 dereferenceable(32) %12)
  %14 = getelementptr inbounds nuw %"struct.arrow::bit_util::little_endian::detail::Reader", ptr %6, i32 0, i32 0
  store ptr %13, ptr %14, align 8
  %15 = call noundef nonnull align 8 dereferenceable(8) ptr @_ZNK5arrow8bit_util13little_endian6detail6ReaderImLm4EEixEm(ptr noundef nonnull align 8 dereferenceable(8) %5, i64 noundef 3)
  %16 = load i64, ptr %15, align 8, !tbaa !8
  %17 = call noundef nonnull align 8 dereferenceable(8) ptr @_ZNK5arrow8bit_util13little_endian6detail6ReaderImLm4EEixEm(ptr noundef nonnull align 8 dereferenceable(8) %6, i64 noundef 3)
  %18 = load i64, ptr %17, align 8, !tbaa !8
  %19 = icmp ne i64 %16, %18
  br i1 %19, label %20, label %26

20:                                               ; preds = %2
  %21 = call noundef nonnull align 8 dereferenceable(8) ptr @_ZNK5arrow8bit_util13little_endian6detail6ReaderImLm4EEixEm(ptr noundef nonnull align 8 dereferenceable(8) %5, i64 noundef 3)
  %22 = load i64, ptr %21, align 8, !tbaa !8
  %23 = call noundef nonnull align 8 dereferenceable(8) ptr @_ZNK5arrow8bit_util13little_endian6detail6ReaderImLm4EEixEm(ptr noundef nonnull align 8 dereferenceable(8) %6, i64 noundef 3)
  %24 = load i64, ptr %23, align 8, !tbaa !8
  %25 = icmp slt i64 %22, %24
  br label %60

26:                                               ; preds = %2
  %27 = call noundef nonnull align 8 dereferenceable(8) ptr @_ZNK5arrow8bit_util13little_endian6detail6ReaderImLm4EEixEm(ptr noundef nonnull align 8 dereferenceable(8) %5, i64 noundef 2)
  %28 = load i64, ptr %27, align 8, !tbaa !8
  %29 = call noundef nonnull align 8 dereferenceable(8) ptr @_ZNK5arrow8bit_util13little_endian6detail6ReaderImLm4EEixEm(ptr noundef nonnull align 8 dereferenceable(8) %6, i64 noundef 2)
  %30 = load i64, ptr %29, align 8, !tbaa !8
  %31 = icmp ne i64 %28, %30
  br i1 %31, label %32, label %38

32:                                               ; preds = %26
  %33 = call noundef nonnull align 8 dereferenceable(8) ptr @_ZNK5arrow8bit_util13little_endian6detail6ReaderImLm4EEixEm(ptr noundef nonnull align 8 dereferenceable(8) %5, i64 noundef 2)
  %34 = load i64, ptr %33, align 8, !tbaa !8
  %35 = call noundef nonnull align 8 dereferenceable(8) ptr @_ZNK5arrow8bit_util13little_endian6detail6ReaderImLm4EEixEm(ptr noundef nonnull align 8 dereferenceable(8) %6, i64 noundef 2)
  %36 = load i64, ptr %35, align 8, !tbaa !8
  %37 = icmp ult i64 %34, %36
  br label %58

38:                                               ; preds = %26
  %39 = call noundef nonnull align 8 dereferenceable(8) ptr @_ZNK5arrow8bit_util13little_endian6detail6ReaderImLm4EEixEm(ptr noundef nonnull align 8 dereferenceable(8) %5, i64 noundef 1)
  %40 = load i64, ptr %39, align 8, !tbaa !8
  %41 = call noundef nonnull align 8 dereferenceable(8) ptr @_ZNK5arrow8bit_util13little_endian6detail6ReaderImLm4EEixEm(ptr noundef nonnull align 8 dereferenceable(8) %6, i64 noundef 1)
  %42 = load i64, ptr %41, align 8, !tbaa !8
  %43 = icmp ne i64 %40, %42
  br i1 %43, label %44, label %50

44:                                               ; preds = %38
  %45 = call noundef nonnull align 8 dereferenceable(8) ptr @_ZNK5arrow8bit_util13little_endian6detail6ReaderImLm4EEixEm(ptr noundef nonnull align 8 dereferenceable(8) %5, i64 noundef 1)
  %46 = load i64, ptr %45, align 8, !tbaa !8
  %47 = call noundef nonnull align 8 dereferenceable(8) ptr @_ZNK5arrow8bit_util13little_endian6detail6ReaderImLm4EEixEm(ptr noundef nonnull align 8 dereferenceable(8) %6, i64 noundef 1)
  %48 = load i64, ptr %47, align 8, !tbaa !8
  %49 = icmp ult i64 %46, %48
  br label %56

50:                                               ; preds = %38
  %51 = call noundef nonnull align 8 dereferenceable(8) ptr @_ZNK5arrow8bit_util13little_endian6detail6ReaderImLm4EEixEm(ptr noundef nonnull align 8 dereferenceable(8) %5, i64 noundef 0)
  %52 = load i64, ptr %51, align 8, !tbaa !8
  %53 = call noundef nonnull align 8 dereferenceable(8) ptr @_ZNK5arrow8bit_util13little_endian6detail6ReaderImLm4EEixEm(ptr noundef nonnull align 8 dereferenceable(8) %6, i64 noundef 0)
  %54 = load i64, ptr %53, align 8, !tbaa !8
  %55 = icmp ult i64 %52, %54
  br label %56

56:                                               ; preds = %50, %44
  %57 = phi i1 [ %49, %44 ], [ %55, %50 ]
  br label %58

58:                                               ; preds = %56, %32
  %59 = phi i1 [ %37, %32 ], [ %57, %56 ]
  br label %60

60:                                               ; preds = %58, %20
  %61 = phi i1 [ %25, %20 ], [ %59, %58 ]
  call void @llvm.lifetime.end.p0(i64 8, ptr %6) #12
  call void @llvm.lifetime.end.p0(i64 8, ptr %5) #12
  ret i1 %61
}