; Function Attrs: mustprogress nofree norecurse nosync nounwind willreturn memory(argmem: read) uwtable
define noundef zeroext i1 @_ZN5arrowltERKNS_15BasicDecimal256ES2_(ptr noundef nonnull readonly align 8 captures(none) dereferenceable(32) %0, ptr noundef nonnull readonly align 8 captures(none) dereferenceable(32) %1) local_unnamed_addr #7 {
  %3 = getelementptr inbounds nuw i8, ptr %0, i64 24
  %4 = load i64, ptr %3, align 8, !tbaa !7
  %5 = getelementptr inbounds nuw i8, ptr %1, i64 24
  %6 = load i64, ptr %5, align 8, !tbaa !7
  %.not = icmp eq i64 %4, %6
  br i1 %.not, label %9, label %7

7:                                                ; preds = %2
  %8 = icmp slt i64 %4, %6
  br label %27

9:                                                ; preds = %2
  %10 = getelementptr inbounds nuw i8, ptr %0, i64 16
  %11 = load i64, ptr %10, align 8, !tbaa !7
  %12 = getelementptr inbounds nuw i8, ptr %1, i64 16
  %13 = load i64, ptr %12, align 8, !tbaa !7
  %.not2 = icmp eq i64 %11, %13
  br i1 %.not2, label %16, label %14

14:                                               ; preds = %9
  %15 = icmp ult i64 %11, %13
  br label %27

16:                                               ; preds = %9
  %17 = getelementptr inbounds nuw i8, ptr %0, i64 8
  %18 = load i64, ptr %17, align 8, !tbaa !7
  %19 = getelementptr inbounds nuw i8, ptr %1, i64 8
  %20 = load i64, ptr %19, align 8, !tbaa !7
  %.not3 = icmp eq i64 %18, %20
  br i1 %.not3, label %23, label %21

21:                                               ; preds = %16
  %22 = icmp ult i64 %18, %20
  br label %27

23:                                               ; preds = %16
  %24 = load i64, ptr %0, align 8, !tbaa !7
  %25 = load i64, ptr %1, align 8, !tbaa !7
  %26 = icmp ult i64 %24, %25
  br label %27

27:                                               ; preds = %14, %23, %21, %7
  %28 = phi i1 [ %8, %7 ], [ %15, %14 ], [ %22, %21 ], [ %26, %23 ]
  ret i1 %28
}